; Function Attrs: mustprogress uwtable
define hidden void @_ZNK4cvc58internal4prop11TheoryProxy26notifyTopLevelSubstitutionERKNS0_12NodeTemplateILb1EEES6_(ptr noundef nonnull readonly align 8 captures(none) dereferenceable(521) %0, ptr noundef nonnull align 8 dereferenceable(8) %1, ptr noundef nonnull align 8 dereferenceable(8) %2) local_unnamed_addr #4 align 2 {
  %4 = getelementptr inbounds nuw i8, ptr %0, i64 448
  %5 = load ptr, ptr %4, align 8, !tbaa !336
  %.not = icmp eq ptr %5, null
  br i1 %.not, label %7, label %6

6:                                                ; preds = %3
  tail call void @_ZN4cvc58internal4prop16ZeroLevelLearner26notifyTopLevelSubstitutionERKNS0_12NodeTemplateILb1EEES6_(ptr noundef nonnull align 8 dereferenceable(1320) %5, ptr noundef nonnull align 8 dereferenceable(8) %1, ptr noundef nonnull align 8 dereferenceable(8) %2)
  br label %7

7:                                                ; preds = %6, %3
  ret void
}